target datalayout = "e-m:e-p270:32:32-p271:32:32-p272:64:64-i64:64-i128:128-f80:128-n8:16:32:64-S128"
target triple = "x86_64-pc-linux-gnu"

%struct.strbuf = type { i64, i64, ptr }
%struct.archiver_args = type { ptr, ptr, ptr, ptr, i64, ptr, ptr, ptr, ptr, i64, %struct.pathspec, i8, i32, %struct.string_list, ptr }
%struct.pathspec = type { i32, i8, i32, i32, ptr }
%struct.string_list = type { ptr, i64, i64, i8, ptr }
%struct.repository = type { ptr, ptr, ptr, ptr, ptr, %struct.strmap, %struct.strmap, %struct.repo_path_cache, ptr, ptr, ptr, ptr, %struct.repo_settings, ptr, ptr, ptr, ptr, ptr, ptr, i32, i32, i32, ptr, ptr, i32, i32, i8 }
%struct.strmap = type { %struct.hashmap, ptr, i8 }
%struct.hashmap = type { ptr, ptr, ptr, i32, i32, i32, i32, i8 }
%struct.repo_path_cache = type { ptr, ptr, ptr, ptr, ptr, ptr, ptr }
%struct.repo_settings = type { i32, i32, i32, i32, i32, i32, i32, i32, i32, i32, i32, i32, ptr, i32, i32, i32, i32, i32, i32, i32, i64, i64, i64 }
%struct.path_exists_context = type { %struct.pathspec, ptr }

@__const.reject_entry.sb = private unnamed_addr constant %struct.strbuf { i64 0, i64 0, ptr @strbuf_slopbuf }, align 8

; Function Attrs: inlinehint nounwind uwtable
define internal void @strbuf_addstr(ptr noundef %0, ptr noundef %1) #2 {
  %3 = alloca ptr, align 8
  %4 = alloca ptr, align 8
  store ptr %0, ptr %3, align 8, !tbaa !68
  store ptr %1, ptr %4, align 8, !tbaa !50
  %5 = load ptr, ptr %3, align 8, !tbaa !68
  %6 = load ptr, ptr %4, align 8, !tbaa !50
  %7 = load ptr, ptr %4, align 8, !tbaa !50
  %8 = call i64 @strlen(ptr noundef %7) #12
  call void @strbuf_add(ptr noundef %5, ptr noundef %6, i64 noundef %8)
  ret void
}

; Function Attrs: nounwind uwtable
define internal i32 @reject_entry(ptr noundef %0, ptr noundef %1, ptr noundef %2, i32 noundef %3, ptr noundef %4) #0 {
  %6 = alloca ptr, align 8
  %7 = alloca ptr, align 8
  %8 = alloca ptr, align 8
  %9 = alloca i32, align 4
  %10 = alloca ptr, align 8
  %11 = alloca i32, align 4
  %12 = alloca ptr, align 8
  %13 = alloca %struct.strbuf, align 8
  store ptr %0, ptr %6, align 8, !tbaa !65
  store ptr %1, ptr %7, align 8, !tbaa !68
  store ptr %2, ptr %8, align 8, !tbaa !50
  store i32 %3, ptr %9, align 4, !tbaa !9
  store ptr %4, ptr %10, align 8, !tbaa !17
  call void @llvm.lifetime.start.p0(i64 4, ptr %11) #11
  store i32 -1, ptr %11, align 4, !tbaa !9
  call void @llvm.lifetime.start.p0(i64 8, ptr %12) #11
  %14 = load ptr, ptr %10, align 8, !tbaa !17
  store ptr %14, ptr %12, align 8, !tbaa !194
  %15 = load i32, ptr %9, align 4, !tbaa !9
  %16 = and i32 %15, 61440
  %17 = icmp eq i32 %16, 16384
  br i1 %17, label %18, label %39

18:                                               ; preds = %5
  call void @llvm.lifetime.start.p0(i64 24, ptr %13) #11
  call void @llvm.memcpy.p0.p0.i64(ptr align 8 %13, ptr align 8 @__const.reject_entry.sb, i64 24, i1 false)
  %19 = load ptr, ptr %7, align 8, !tbaa !68
  call void @strbuf_addbuf(ptr noundef %13, ptr noundef %19)
  %20 = load ptr, ptr %8, align 8, !tbaa !50
  call void @strbuf_addstr(ptr noundef %13, ptr noundef %20)
  %21 = load ptr, ptr %12, align 8, !tbaa !194
  %22 = getelementptr inbounds nuw %struct.path_exists_context, ptr %21, i32 0, i32 1
  %23 = load ptr, ptr %22, align 8, !tbaa !192
  %24 = getelementptr inbounds nuw %struct.archiver_args, ptr %23, i32 0, i32 0
  %25 = load ptr, ptr %24, align 8, !tbaa !41
  %26 = getelementptr inbounds nuw %struct.repository, ptr %25, i32 0, i32 15
  %27 = load ptr, ptr %26, align 8, !tbaa !73
  %28 = load ptr, ptr %12, align 8, !tbaa !194
  %29 = getelementptr inbounds nuw %struct.path_exists_context, ptr %28, i32 0, i32 0
  %30 = getelementptr inbounds nuw %struct.strbuf, ptr %13, i32 0, i32 2
  %31 = load ptr, ptr %30, align 8, !tbaa !60
  %32 = getelementptr inbounds nuw %struct.strbuf, ptr %13, i32 0, i32 1
  %33 = load i64, ptr %32, align 8, !tbaa !62
  %34 = trunc i64 %33 to i32
  %35 = call i32 @match_pathspec(ptr noundef %27, ptr noundef %29, ptr noundef %31, i32 noundef %34, i32 noundef 0, ptr noundef null, i32 noundef 1)
  %36 = icmp ne i32 %35, 0
  br i1 %36, label %38, label %37

37:                                               ; preds = %18
  store i32 1, ptr %11, align 4, !tbaa !9
  br label %38

38:                                               ; preds = %37, %18
  call void @strbuf_release(ptr noundef %13)
  call void @llvm.lifetime.end.p0(i64 24, ptr %13) #11
  br label %39

39:                                               ; preds = %38, %5
  %40 = load i32, ptr %11, align 4, !tbaa !9
  call void @llvm.lifetime.end.p0(i64 8, ptr %12) #11
  call void @llvm.lifetime.end.p0(i64 4, ptr %11) #11
  ret i32 %40
}