; Function Attrs: nounwind uwtable
define internal range(i32 -1, 2) i32 @reject_entry(ptr readnone captures(none) %0, ptr noundef %1, ptr noundef %2, i32 noundef %3, ptr noundef %4) #0 {
  %6 = alloca %struct.strbuf, align 8
  %7 = and i32 %3, 61440
  %8 = icmp eq i32 %7, 16384
  br i1 %8, label %9, label %22

9:                                                ; preds = %5
  call void @llvm.lifetime.start.p0(i64 24, ptr nonnull %6) #19
  call void @llvm.memcpy.p0.p0.i64(ptr noundef nonnull align 8 dereferenceable(24) %6, ptr noundef nonnull align 8 dereferenceable(24) @__const.reject_entry.sb, i64 24, i1 false)
  call void @strbuf_addbuf(ptr noundef nonnull %6, ptr noundef %1) #19
  %10 = call i64 @strlen(ptr noundef nonnull dereferenceable(1) %2) #21
  call void @strbuf_add(ptr noundef nonnull %6, ptr noundef nonnull %2, i64 noundef %10) #19
  %11 = getelementptr inbounds nuw i8, ptr %4, i64 24
  %12 = load ptr, ptr %11, align 8, !tbaa !162
  %13 = load ptr, ptr %12, align 8, !tbaa !40
  %14 = getelementptr inbounds nuw i8, ptr %13, i64 384
  %15 = load ptr, ptr %14, align 8, !tbaa !61
  %16 = getelementptr inbounds nuw i8, ptr %6, i64 16
  %17 = load ptr, ptr %16, align 8, !tbaa !55
  %18 = getelementptr inbounds nuw i8, ptr %6, i64 8
  %19 = load i64, ptr %18, align 8, !tbaa !53
  %20 = trunc i64 %19 to i32
  %21 = call i32 @match_pathspec(ptr noundef %15, ptr noundef %4, ptr noundef %17, i32 noundef %20, i32 noundef 0, ptr noundef null, i32 noundef 1) #19
  %.not = icmp eq i32 %21, 0
  %spec.select = select i1 %.not, i32 1, i32 -1
  call void @strbuf_release(ptr noundef nonnull %6) #19
  call void @llvm.lifetime.end.p0(i64 24, ptr nonnull %6) #19
  br label %22

22:                                               ; preds = %9, %5
  %.0 = phi i32 [ %spec.select, %9 ], [ -1, %5 ]
  ret i32 %.0
}